target datalayout = "e-m:e-p270:32:32-p271:32:32-p272:64:64-i64:64-i128:128-f80:128-n8:16:32:64-S128"
target triple = "x86_64-pc-linux-gnu"

%"class.pxrInternal_v0_24__pxrReserved__::TfHashMap" = type { %"class.std::unordered_map" }
%"class.std::unordered_map" = type { %"class.std::_Hashtable" }
%"class.std::_Hashtable" = type { ptr, i64, %"struct.std::__detail::_Hash_node_base", i64, %"struct.std::__detail::_Prime_rehash_policy", ptr }
%"struct.std::__detail::_Hash_node_base" = type { ptr }
%"struct.std::__detail::_Prime_rehash_policy" = type { float, i64 }
%"class.std::__cxx11::basic_string" = type { %"struct.std::__cxx11::basic_string<char>::_Alloc_hider", i64, %union.anon }
%"struct.std::__cxx11::basic_string<char>::_Alloc_hider" = type { ptr }
%union.anon = type { i64, [8 x i8] }
%"struct.pxrInternal_v0_24__pxrReserved__::(anonymous namespace)::Tf_RegistryManagerImpl::_ActiveLibraryState" = type { i64, %"class.std::__cxx11::basic_string", %"class.pxrInternal_v0_24__pxrReserved__::TfHashMap" }

; Function Attrs: mustprogress nounwind uwtable
define internal void @_ZNSt15__new_allocatorINSt8__detail10_Hash_nodeISt4pairIKNSt7__cxx1112basic_stringIcSt11char_traitsIcESaIcEEENS3_4listIN32pxrInternal_v0_24__pxrReserved__12_GLOBAL__N_122Tf_RegistryManagerImpl18_RegistrationValueESaISE_EEEELb1EEEEC2Ev(ptr noundef nonnull align 1 dereferenceable(1) %0) unnamed_addr #0 align 2 {
  %2 = alloca ptr, align 8
  store ptr %0, ptr %2, align 8
  ret void
}

; Function Attrs: mustprogress nounwind uwtable
define internal void @_ZNSaINSt8__detail10_Hash_nodeISt4pairIKNSt7__cxx1112basic_stringIcSt11char_traitsIcESaIcEEENS2_4listIN32pxrInternal_v0_24__pxrReserved__12_GLOBAL__N_122Tf_RegistryManagerImpl18_RegistrationValueESaISD_EEEELb1EEEEC2Ev(ptr noundef nonnull align 1 dereferenceable(1) %0) unnamed_addr #0 align 2 {
  %2 = alloca ptr, align 8
  store ptr %0, ptr %2, align 8
  %3 = load ptr, ptr %2, align 8
  call void @_ZNSt15__new_allocatorINSt8__detail10_Hash_nodeISt4pairIKNSt7__cxx1112basic_stringIcSt11char_traitsIcESaIcEEENS3_4listIN32pxrInternal_v0_24__pxrReserved__12_GLOBAL__N_122Tf_RegistryManagerImpl18_RegistrationValueESaISE_EEEELb1EEEEC2Ev(ptr noundef nonnull align 1 dereferenceable(1) %3) #2
  ret void
}

; Function Attrs: mustprogress nounwind uwtable
define linkonce_odr void @_ZNSt8__detail21_Hashtable_ebo_helperILi1EN32pxrInternal_v0_24__pxrReserved__6TfHashELb1EEC2Ev(ptr noundef nonnull align 1 dereferenceable(1) %0) unnamed_addr #0 comdat align 2 {
  %2 = alloca ptr, align 8
  store ptr %0, ptr %2, align 8
  ret void
}

; Function Attrs: mustprogress nounwind uwtable
define internal void @_ZNSt8__detail21_Hashtable_ebo_helperILi0ESaINS_10_Hash_nodeISt4pairIKNSt7__cxx1112basic_stringIcSt11char_traitsIcESaIcEEENS3_4listIN32pxrInternal_v0_24__pxrReserved__12_GLOBAL__N_122Tf_RegistryManagerImpl18_RegistrationValueESaISE_EEEELb1EEEELb1EEC2Ev(ptr noundef nonnull align 1 dereferenceable(1) %0) unnamed_addr #0 align 2 {
  %2 = alloca ptr, align 8
  store ptr %0, ptr %2, align 8
  %3 = load ptr, ptr %2, align 8
  call void @_ZNSaINSt8__detail10_Hash_nodeISt4pairIKNSt7__cxx1112basic_stringIcSt11char_traitsIcESaIcEEENS2_4listIN32pxrInternal_v0_24__pxrReserved__12_GLOBAL__N_122Tf_RegistryManagerImpl18_RegistrationValueESaISD_EEEELb1EEEEC2Ev(ptr noundef nonnull align 1 dereferenceable(1) %3) #2
  ret void
}

; Function Attrs: mustprogress nounwind uwtable
define linkonce_odr void @_ZNSt8__detail21_Hashtable_ebo_helperILi0ESt8equal_toINSt7__cxx1112basic_stringIcSt11char_traitsIcESaIcEEEELb1EEC2Ev(ptr noundef nonnull align 1 dereferenceable(1) %0) unnamed_addr #0 comdat align 2 {
  %2 = alloca ptr, align 8
  store ptr %0, ptr %2, align 8
  ret void
}

; Function Attrs: mustprogress nounwind uwtable
define internal void @_ZNSt8__detail15_Hash_code_baseINSt7__cxx1112basic_stringIcSt11char_traitsIcESaIcEEESt4pairIKS6_NS1_4listIN32pxrInternal_v0_24__pxrReserved__12_GLOBAL__N_122Tf_RegistryManagerImpl18_RegistrationValueESaISD_EEEENS_10_Select1stENSA_6TfHashENS_18_Mod_range_hashingENS_20_Default_ranged_hashELb1EEC2Ev(ptr noundef nonnull align 1 dereferenceable(1) %0) unnamed_addr #0 align 2 {
  %2 = alloca ptr, align 8
  store ptr %0, ptr %2, align 8
  %3 = load ptr, ptr %2, align 8
  call void @_ZNSt8__detail21_Hashtable_ebo_helperILi1EN32pxrInternal_v0_24__pxrReserved__6TfHashELb1EEC2Ev(ptr noundef nonnull align 1 dereferenceable(1) %3) #2
  ret void
}

; Function Attrs: mustprogress nounwind uwtable
define linkonce_odr void @_ZNSt8__detail20_Prime_rehash_policyC2Ef(ptr noundef nonnull align 8 dereferenceable(16) %0, float noundef %1) unnamed_addr #0 comdat align 2 {
  %3 = alloca ptr, align 8
  %4 = alloca float, align 4
  store ptr %0, ptr %3, align 8
  store float %1, ptr %4, align 4
  %5 = load ptr, ptr %3, align 8
  %6 = getelementptr inbounds nuw %"struct.std::__detail::_Prime_rehash_policy", ptr %5, i32 0, i32 0
  %7 = load float, ptr %4, align 4
  store float %7, ptr %6, align 8
  %8 = getelementptr inbounds nuw %"struct.std::__detail::_Prime_rehash_policy", ptr %5, i32 0, i32 1
  store i64 0, ptr %8, align 8
  ret void
}

; Function Attrs: mustprogress nounwind uwtable
define linkonce_odr void @_ZNSt8__detail15_Hash_node_baseC2Ev(ptr noundef nonnull align 8 dereferenceable(8) %0) unnamed_addr #0 comdat align 2 {
  %2 = alloca ptr, align 8
  store ptr %0, ptr %2, align 8
  %3 = load ptr, ptr %2, align 8
  %4 = getelementptr inbounds nuw %"struct.std::__detail::_Hash_node_base", ptr %3, i32 0, i32 0
  store ptr null, ptr %4, align 8
  ret void
}

; Function Attrs: mustprogress nounwind uwtable
define internal void @_ZNSt8__detail16_Hashtable_allocISaINS_10_Hash_nodeISt4pairIKNSt7__cxx1112basic_stringIcSt11char_traitsIcESaIcEEENS3_4listIN32pxrInternal_v0_24__pxrReserved__12_GLOBAL__N_122Tf_RegistryManagerImpl18_RegistrationValueESaISE_EEEELb1EEEEEC2Ev(ptr noundef nonnull align 1 dereferenceable(1) %0) unnamed_addr #0 align 2 {
  %2 = alloca ptr, align 8
  store ptr %0, ptr %2, align 8
  %3 = load ptr, ptr %2, align 8
  call void @_ZNSt8__detail21_Hashtable_ebo_helperILi0ESaINS_10_Hash_nodeISt4pairIKNSt7__cxx1112basic_stringIcSt11char_traitsIcESaIcEEENS3_4listIN32pxrInternal_v0_24__pxrReserved__12_GLOBAL__N_122Tf_RegistryManagerImpl18_RegistrationValueESaISE_EEEELb1EEEELb1EEC2Ev(ptr noundef nonnull align 1 dereferenceable(1) %3) #2
  ret void
}

; Function Attrs: mustprogress nounwind uwtable
define internal void @_ZNSt8__detail15_Hashtable_baseINSt7__cxx1112basic_stringIcSt11char_traitsIcESaIcEEESt4pairIKS6_NS1_4listIN32pxrInternal_v0_24__pxrReserved__12_GLOBAL__N_122Tf_RegistryManagerImpl18_RegistrationValueESaISD_EEEENS_10_Select1stESt8equal_toIS6_ENSA_6TfHashENS_18_Mod_range_hashingENS_20_Default_ranged_hashENS_17_Hashtable_traitsILb1ELb0ELb1EEEEC2Ev(ptr noundef nonnull align 1 dereferenceable(1) %0) unnamed_addr #0 align 2 {
  %2 = alloca ptr, align 8
  store ptr %0, ptr %2, align 8
  %3 = load ptr, ptr %2, align 8
  call void @_ZNSt8__detail15_Hash_code_baseINSt7__cxx1112basic_stringIcSt11char_traitsIcESaIcEEESt4pairIKS6_NS1_4listIN32pxrInternal_v0_24__pxrReserved__12_GLOBAL__N_122Tf_RegistryManagerImpl18_RegistrationValueESaISD_EEEENS_10_Select1stENSA_6TfHashENS_18_Mod_range_hashingENS_20_Default_ranged_hashELb1EEC2Ev(ptr noundef nonnull align 1 dereferenceable(1) %3) #2
  call void @_ZNSt8__detail21_Hashtable_ebo_helperILi0ESt8equal_toINSt7__cxx1112basic_stringIcSt11char_traitsIcESaIcEEEELb1EEC2Ev(ptr noundef nonnull align 1 dereferenceable(1) %3) #2
  ret void
}

; Function Attrs: mustprogress nounwind uwtable
define internal void @_ZNSt10_HashtableINSt7__cxx1112basic_stringIcSt11char_traitsIcESaIcEEESt4pairIKS5_NS0_4listIN32pxrInternal_v0_24__pxrReserved__12_GLOBAL__N_122Tf_RegistryManagerImpl18_RegistrationValueESaISC_EEEESaISF_ENSt8__detail10_Select1stESt8equal_toIS5_ENS9_6TfHashENSH_18_Mod_range_hashingENSH_20_Default_ranged_hashENSH_20_Prime_rehash_policyENSH_17_Hashtable_traitsILb1ELb0ELb1EEEEC2Ev(ptr noundef nonnull align 8 dereferenceable(56) %0) unnamed_addr #0 align 2 {
  %2 = alloca ptr, align 8
  store ptr %0, ptr %2, align 8
  %3 = load ptr, ptr %2, align 8
  call void @_ZNSt8__detail15_Hashtable_baseINSt7__cxx1112basic_stringIcSt11char_traitsIcESaIcEEESt4pairIKS6_NS1_4listIN32pxrInternal_v0_24__pxrReserved__12_GLOBAL__N_122Tf_RegistryManagerImpl18_RegistrationValueESaISD_EEEENS_10_Select1stESt8equal_toIS6_ENSA_6TfHashENS_18_Mod_range_hashingENS_20_Default_ranged_hashENS_17_Hashtable_traitsILb1ELb0ELb1EEEEC2Ev(ptr noundef nonnull align 1 dereferenceable(1) %3) #2
  call void @_ZNSt8__detail16_Hashtable_allocISaINS_10_Hash_nodeISt4pairIKNSt7__cxx1112basic_stringIcSt11char_traitsIcESaIcEEENS3_4listIN32pxrInternal_v0_24__pxrReserved__12_GLOBAL__N_122Tf_RegistryManagerImpl18_RegistrationValueESaISE_EEEELb1EEEEEC2Ev(ptr noundef nonnull align 1 dereferenceable(1) %3) #2
  %4 = getelementptr inbounds nuw %"class.std::_Hashtable", ptr %3, i32 0, i32 0
  %5 = getelementptr inbounds nuw %"class.std::_Hashtable", ptr %3, i32 0, i32 5
  store ptr %5, ptr %4, align 8
  %6 = getelementptr inbounds nuw %"class.std::_Hashtable", ptr %3, i32 0, i32 1
  store i64 1, ptr %6, align 8
  %7 = getelementptr inbounds nuw %"class.std::_Hashtable", ptr %3, i32 0, i32 2
  call void @_ZNSt8__detail15_Hash_node_baseC2Ev(ptr noundef nonnull align 8 dereferenceable(8) %7) #2
  %8 = getelementptr inbounds nuw %"class.std::_Hashtable", ptr %3, i32 0, i32 3
  store i64 0, ptr %8, align 8
  %9 = getelementptr inbounds nuw %"class.std::_Hashtable", ptr %3, i32 0, i32 4
  call void @_ZNSt8__detail20_Prime_rehash_policyC2Ef(ptr noundef nonnull align 8 dereferenceable(16) %9, float noundef 1.000000e+00) #2
  %10 = getelementptr inbounds nuw %"class.std::_Hashtable", ptr %3, i32 0, i32 5
  store ptr null, ptr %10, align 8
  ret void
}

; Function Attrs: mustprogress nounwind uwtable
define internal void @_ZNSt13unordered_mapINSt7__cxx1112basic_stringIcSt11char_traitsIcESaIcEEENS0_4listIN32pxrInternal_v0_24__pxrReserved__12_GLOBAL__N_122Tf_RegistryManagerImpl18_RegistrationValueESaISA_EEENS7_6TfHashESt8equal_toIS5_ESaISt4pairIKS5_SC_EEEC2Ev(ptr noundef nonnull align 8 dereferenceable(56) %0) unnamed_addr #0 align 2 {
  %2 = alloca ptr, align 8
  store ptr %0, ptr %2, align 8
  %3 = load ptr, ptr %2, align 8
  %4 = getelementptr inbounds nuw %"class.std::unordered_map", ptr %3, i32 0, i32 0
  call void @_ZNSt10_HashtableINSt7__cxx1112basic_stringIcSt11char_traitsIcESaIcEEESt4pairIKS5_NS0_4listIN32pxrInternal_v0_24__pxrReserved__12_GLOBAL__N_122Tf_RegistryManagerImpl18_RegistrationValueESaISC_EEEESaISF_ENSt8__detail10_Select1stESt8equal_toIS5_ENS9_6TfHashENSH_18_Mod_range_hashingENSH_20_Default_ranged_hashENSH_20_Prime_rehash_policyENSH_17_Hashtable_traitsILb1ELb0ELb1EEEEC2Ev(ptr noundef nonnull align 8 dereferenceable(56) %4) #2
  ret void
}

; Function Attrs: mustprogress nounwind uwtable
define internal void @_ZN32pxrInternal_v0_24__pxrReserved__9TfHashMapINSt7__cxx1112basic_stringIcSt11char_traitsIcESaIcEEENS1_4listINS_12_GLOBAL__N_122Tf_RegistryManagerImpl18_RegistrationValueESaISA_EEENS_6TfHashESt8equal_toIS6_ESaISt4pairIKS6_SC_EEEC2Ev(ptr noundef nonnull align 8 dereferenceable(56) %0) unnamed_addr #0 align 2 {
  %2 = alloca ptr, align 8
  store ptr %0, ptr %2, align 8
  %3 = load ptr, ptr %2, align 8
  %4 = getelementptr inbounds i8, ptr %3, i64 0
  call void @llvm.memset.p0.i64(ptr align 8 %4, i8 0, i64 56, i1 false)
  call void @_ZNSt13unordered_mapINSt7__cxx1112basic_stringIcSt11char_traitsIcESaIcEEENS0_4listIN32pxrInternal_v0_24__pxrReserved__12_GLOBAL__N_122Tf_RegistryManagerImpl18_RegistrationValueESaISA_EEENS7_6TfHashESt8equal_toIS5_ESaISt4pairIKS5_SC_EEEC2Ev(ptr noundef nonnull align 8 dereferenceable(56) %3) #2
  ret void
}

; Function Attrs: mustprogress uwtable
define internal void @_ZN32pxrInternal_v0_24__pxrReserved__12_GLOBAL__N_122Tf_RegistryManagerImpl19_ActiveLibraryStateC2Ev(ptr noundef nonnull align 8 dereferenceable(96) %0) unnamed_addr #1 align 2 personality ptr @__gxx_personality_v0 {
  %2 = alloca ptr, align 8
  %3 = alloca ptr, align 8
  %4 = alloca i32, align 4
  store ptr %0, ptr %2, align 8
  %5 = load ptr, ptr %2, align 8
  %6 = getelementptr inbounds nuw %"struct.pxrInternal_v0_24__pxrReserved__::(anonymous namespace)::Tf_RegistryManagerImpl::_ActiveLibraryState", ptr %5, i32 0, i32 0
  store i64 0, ptr %6, align 8
  %7 = getelementptr inbounds nuw %"struct.pxrInternal_v0_24__pxrReserved__::(anonymous namespace)::Tf_RegistryManagerImpl::_ActiveLibraryState", ptr %5, i32 0, i32 1
  call void @_ZNSt7__cxx1112basic_stringIcSt11char_traitsIcESaIcEEC1Ev(ptr noundef nonnull align 8 dereferenceable(32) %7) #2
  %8 = getelementptr inbounds nuw %"struct.pxrInternal_v0_24__pxrReserved__::(anonymous namespace)::Tf_RegistryManagerImpl::_ActiveLibraryState", ptr %5, i32 0, i32 2
  invoke void @_ZN32pxrInternal_v0_24__pxrReserved__9TfHashMapINSt7__cxx1112basic_stringIcSt11char_traitsIcESaIcEEENS1_4listINS_12_GLOBAL__N_122Tf_RegistryManagerImpl18_RegistrationValueESaISA_EEENS_6TfHashESt8equal_toIS6_ESaISt4pairIKS6_SC_EEEC2Ev(ptr noundef nonnull align 8 dereferenceable(56) %8)
          to label %9 unwind label %10

9:                                                ; preds = %1
  ret void

10:                                               ; preds = %1
  %11 = landingpad { ptr, i32 }
          cleanup
  %12 = extractvalue { ptr, i32 } %11, 0
  store ptr %12, ptr %3, align 8
  %13 = extractvalue { ptr, i32 } %11, 1
  store i32 %13, ptr %4, align 4
  call void @_ZNSt7__cxx1112basic_stringIcSt11char_traitsIcESaIcEED1Ev(ptr noundef nonnull align 8 dereferenceable(32) %7) #2
  br label %14

14:                                               ; preds = %10
  %15 = load ptr, ptr %3, align 8
  %16 = load i32, ptr %4, align 4
  %17 = insertvalue { ptr, i32 } poison, ptr %15, 0
  %18 = insertvalue { ptr, i32 } %17, i32 %16, 1
  resume { ptr, i32 } %18
}

; Function Attrs: mustprogress uwtable
define internal void @_ZN3tbb6detail2d120construct_by_defaultIN32pxrInternal_v0_24__pxrReserved__12_GLOBAL__N_122Tf_RegistryManagerImpl19_ActiveLibraryStateEE9constructEPv(ptr noundef nonnull align 1 dereferenceable(1) %0, ptr noundef %1) #1 align 2 {
  %3 = alloca ptr, align 8
  %4 = alloca ptr, align 8
  store ptr %0, ptr %3, align 8
  store ptr %1, ptr %4, align 8
  %5 = load ptr, ptr %4, align 8
  call void @_ZN32pxrInternal_v0_24__pxrReserved__12_GLOBAL__N_122Tf_RegistryManagerImpl19_ActiveLibraryStateC2Ev(ptr noundef nonnull align 8 dereferenceable(96) %5)
  ret void
}

; Function Attrs: mustprogress uwtable
define internal void @_ZN3tbb6detail2d113callback_leafINS1_20construct_by_defaultIN32pxrInternal_v0_24__pxrReserved__12_GLOBAL__N_122Tf_RegistryManagerImpl19_ActiveLibraryStateEEEE9constructEPv(ptr noundef nonnull align 8 dereferenceable(8) %0, ptr noundef %1) unnamed_addr #1 align 2 {
  %3 = alloca ptr, align 8
  %4 = alloca ptr, align 8
  store ptr %0, ptr %3, align 8
  store ptr %1, ptr %4, align 8
  %5 = load ptr, ptr %3, align 8
  %6 = load ptr, ptr %4, align 8
  call void @_ZN3tbb6detail2d120construct_by_defaultIN32pxrInternal_v0_24__pxrReserved__12_GLOBAL__N_122Tf_RegistryManagerImpl19_ActiveLibraryStateEE9constructEPv(ptr noundef nonnull align 1 dereferenceable(1) %5, ptr noundef %6)
  ret void
}