; Function Attrs: mustprogress nounwind uwtable
define internal void @_ZN3tbb6detail2d113callback_leafINS1_20construct_by_defaultIN32pxrInternal_v0_24__pxrReserved__12_GLOBAL__N_122Tf_RegistryManagerImpl19_ActiveLibraryStateEEEE9constructEPv(ptr nonnull readnone align 8 captures(none) %0, ptr noundef initializes((0, 8)) %1) unnamed_addr #10 align 2 personality ptr @__gxx_personality_v0 {
  store i64 0, ptr %1, align 8
  %3 = getelementptr inbounds nuw i8, ptr %1, i64 8
  tail call void @_ZNSt7__cxx1112basic_stringIcSt11char_traitsIcESaIcEEC1Ev(ptr noundef nonnull align 8 dereferenceable(32) %3) #15
  %4 = getelementptr inbounds nuw i8, ptr %1, i64 40
  %5 = getelementptr inbounds nuw i8, ptr %1, i64 72
  store i64 0, ptr %5, align 8
  %6 = getelementptr inbounds nuw i8, ptr %1, i64 88
  store ptr %6, ptr %4, align 8
  %7 = getelementptr inbounds nuw i8, ptr %1, i64 48
  store i64 1, ptr %7, align 8
  %8 = getelementptr inbounds nuw i8, ptr %1, i64 56
  tail call void @llvm.memset.p0.i64(ptr noundef nonnull align 8 dereferenceable(16) %8, i8 0, i64 16, i1 false)
  store float 1.000000e+00, ptr %5, align 8
  %9 = getelementptr inbounds nuw i8, ptr %1, i64 80
  tail call void @llvm.memset.p0.i64(ptr noundef nonnull align 8 dereferenceable(16) %9, i8 0, i64 16, i1 false)
  ret void
}